; Function Attrs: nofree norecurse nosync nounwind memory(none) uwtable
define hidden ptr @avifTransferCharacteristicsGetGammaToLinearFunction(i16 noundef zeroext %0) local_unnamed_addr #4 {
  br label %3

2:                                                ; preds = %3
  %indvars.iv.next = add nuw nsw i64 %indvars.iv, 1
  %exitcond.not = icmp eq i64 %indvars.iv.next, 16
  br i1 %exitcond.not, label %.loopexit, label %3, !llvm.loop !8

3:                                                ; preds = %1, %2
  %indvars.iv = phi i64 [ 0, %1 ], [ %indvars.iv.next, %2 ]
  %4 = getelementptr inbounds [16 x %struct.avifTransferCharacteristicsTable], ptr @transferCharacteristicsTables, i64 0, i64 %indvars.iv
  %5 = load i16, ptr %4, align 16
  %6 = icmp eq i16 %5, %0
  br i1 %6, label %7, label %2

7:                                                ; preds = %3
  %8 = getelementptr inbounds nuw i8, ptr %4, i64 16
  %9 = load ptr, ptr %8, align 8
  br label %.loopexit

.loopexit:                                        ; preds = %2, %7
  %.0 = phi ptr [ %9, %7 ], [ @avifToLinear709, %2 ]
  ret ptr %.0
}